; Function Attrs: mustprogress uwtable
define hidden void @_ZN12mpff_manager15inc_significandER4mpff(ptr noundef nonnull readonly align 8 captures(none) dereferenceable(89) %0, ptr noundef nonnull align 4 captures(none) dereferenceable(8) %1) local_unnamed_addr #3 align 2 {
  %3 = getelementptr inbounds nuw i8, ptr %0, i64 8
  %4 = load ptr, ptr %3, align 8, !tbaa !3
  %5 = load i32, ptr %1, align 4
  %6 = lshr i32 %5, 1
  %7 = load i32, ptr %0, align 8, !tbaa !13
  %8 = mul i32 %6, %7
  %9 = zext i32 %8 to i64
  %10 = getelementptr inbounds nuw i32, ptr %4, i64 %9
  %11 = tail call noundef zeroext i1 @_Z3incjPj(i32 noundef %7, ptr noundef %10)
  br i1 %11, label %24, label %12

12:                                               ; preds = %2
  %13 = load i32, ptr %0, align 8, !tbaa !13
  %14 = add i32 %13, -1
  %15 = zext i32 %14 to i64
  %16 = getelementptr inbounds nuw i32, ptr %10, i64 %15
  store i32 -2147483648, ptr %16, align 4, !tbaa !21
  %17 = getelementptr inbounds nuw i8, ptr %1, i64 4
  %18 = load i32, ptr %17, align 4, !tbaa !35
  %19 = icmp eq i32 %18, 2147483647
  br i1 %19, label %20, label %22

20:                                               ; preds = %12
  %21 = tail call ptr @__cxa_allocate_exception(i64 8) #25
  store ptr getelementptr inbounds nuw inrange(-16, 32) (i8, ptr @_ZTVN12mpff_manager18overflow_exceptionE, i64 16), ptr %21, align 8, !tbaa !24
  tail call void @__cxa_throw(ptr nonnull %21, ptr nonnull @_ZTIN12mpff_manager18overflow_exceptionE, ptr nonnull @_ZNSt9exceptionD2Ev) #26
  unreachable

22:                                               ; preds = %12
  %23 = add nsw i32 %18, 1
  store i32 %23, ptr %17, align 4, !tbaa !35
  br label %24

24:                                               ; preds = %22, %2
  ret void
}